; Function Attrs: nounwind uwtable
define dso_local i32 @set_node_maint_mode() local_unnamed_addr #0 {
  %1 = alloca i32, align 4
  %2 = alloca ptr, align 8
  %3 = tail call i64 @time(ptr noundef null) #19
  call void @llvm.lifetime.start.p0(i64 8, ptr nonnull %2) #19
  %4 = load i32, ptr @node_record_count, align 4
  %5 = sext i32 %4 to i64
  %6 = tail call ptr @bit_alloc(i64 noundef %5) #19
  store ptr %6, ptr %2, align 8
  %7 = tail call fastcc i32 @_set_node_maint_mode(i1 noundef zeroext false, ptr noundef %6)
  call void @llvm.lifetime.start.p0(i64 4, ptr nonnull %1) #19
  store i32 0, ptr %1, align 4
  %8 = call ptr @next_node_bitmap(ptr noundef %6, ptr noundef nonnull %1) #19
  %.not2.i = icmp eq ptr %8, null
  br i1 %.not2.i, label %_flush_node_down_cache.exit, label %.lr.ph.i

.lr.ph.i:                                         ; preds = %0, %.lr.ph.i
  %9 = phi ptr [ %15, %.lr.ph.i ], [ %8, %0 ]
  %10 = load ptr, ptr @acct_db_conn, align 8
  %11 = load i32, ptr getelementptr inbounds nuw (i8, ptr @slurm_conf, i64 1152), align 8
  %12 = call i32 @clusteracct_storage_g_node_down(ptr noundef %10, ptr noundef nonnull %9, i64 noundef %3, ptr noundef null, i32 noundef %11) #19
  %13 = load i32, ptr %1, align 4
  %14 = add nsw i32 %13, 1
  store i32 %14, ptr %1, align 4
  %15 = call ptr @next_node_bitmap(ptr noundef %6, ptr noundef nonnull %1) #19
  %.not.i = icmp eq ptr %15, null
  br i1 %.not.i, label %_flush_node_down_cache.exit, label %.lr.ph.i, !llvm.loop !51

_flush_node_down_cache.exit:                      ; preds = %.lr.ph.i, %0
  call void @llvm.lifetime.end.p0(i64 4, ptr nonnull %1) #19
  %.not = icmp eq ptr %6, null
  br i1 %.not, label %17, label %16

16:                                               ; preds = %_flush_node_down_cache.exit
  call void @slurm_bit_free(ptr noundef nonnull %2) #19
  br label %17

17:                                               ; preds = %16, %_flush_node_down_cache.exit
  call void @llvm.lifetime.end.p0(i64 8, ptr nonnull %2) #19
  ret i32 %7
}